target datalayout = "e-m:e-p270:32:32-p271:32:32-p272:64:64-i64:64-i128:128-f80:128-n8:16:32:64-S128"
target triple = "x86_64-pc-linux-gnu"

%struct.WOLFSSL = type <{ ptr, ptr, ptr, ptr, [48 x i8], [48 x i8], ptr, ptr, ptr, ptr, ptr, ptr, ptr, ptr, ptr, ptr, ptr, ptr, ptr, i32, [4 x i8], %struct.WOLFSSL_CIPHER, ptr, %struct.Ciphers, %struct.Ciphers, [8 x i8], %struct.Buffers, ptr, ptr, %struct.WOLFSSL_ALERT_HISTORY, %struct.WOLFSSL_ALERT, i32, i32, i32, i32, i32, i32, i32, i16, [2 x i8], i32, i8, %struct.RecordLayerHeader, %struct.MsgsReceived, %struct.ProtocolVersion, %struct.ProtocolVersion, %struct.CipherSpecs, [2 x i8], %struct.Keys, %struct.Options, ptr, i8, i8, i16, [10 x i16], i8, i8, i16, i16, [38 x i8], i32, i32, [4 x i8], ptr, i8, i8, [6 x i8], ptr, ptr, i16, i8, i8, i32, i8, [3 x i8], i32, %struct.OneTimeAuth, ptr }>
%struct.WOLFSSL_CIPHER = type { i8, i8, ptr }
%struct.Ciphers = type { ptr, ptr, ptr, ptr, i8, i8 }
%struct.Buffers = type { %struct.bufferStatic, %struct.bufferStatic, %struct.WOLFSSL_BUFFER_INFO, %struct.WOLFSSL_BUFFER_INFO, %struct.WOLFSSL_BUFFER_INFO, %struct.WOLFSSL_BUFFER_INFO, i32, i32, i8, i8, i8, i8, %struct.WOLFSSL_BUFFER_INFO, %struct.WOLFSSL_BUFFER_INFO, %struct.WOLFSSL_BUFFER_INFO, %struct.WOLFSSL_BUFFER_INFO, ptr, ptr, ptr, i8, i8, i32, i32, ptr, i32, [1 x ptr] }
%struct.bufferStatic = type { [5 x i8], ptr, i32, i32, i32, i8, i8 }
%struct.WOLFSSL_BUFFER_INFO = type { ptr, i32 }
%struct.WOLFSSL_ALERT_HISTORY = type { %struct.WOLFSSL_ALERT, %struct.WOLFSSL_ALERT }
%struct.WOLFSSL_ALERT = type { i32, i32 }
%struct.RecordLayerHeader = type { i8, i8, i8, [2 x i8] }
%struct.MsgsReceived = type { i32 }
%struct.ProtocolVersion = type { i8, i8 }
%struct.CipherSpecs = type { i16, i16, i16, i16, i8, i8, i8, i8, i8, i8, i8, i8 }
%struct.Keys = type { [64 x i8], [64 x i8], [32 x i8], [32 x i8], [16 x i8], [16 x i8], [8 x i8], [12 x i8], [12 x i8], i32, i32, i32, i32, i32, i32, i8, i8, i8, i8 }
%struct.Options = type { i64, i64, i8, i8, i8, i8, i8, i8, i8, i8, i8, i8, i8, i8, i8, i8, i8, i8, i8, i8, i8, i8, i8, i16, i16, i16, i16, i16, i8 }
%struct.OneTimeAuth = type { ptr, i8 }
%struct.TLSX = type { i32, ptr, i32, i8, ptr }

; Function Attrs: nounwind uwtable
define ptr @TLSX_Find(ptr noundef %0, i32 noundef %1) #0 {
  %3 = alloca ptr, align 8
  %4 = alloca i32, align 4
  %5 = alloca ptr, align 8
  store ptr %0, ptr %3, align 8, !tbaa !77
  store i32 %1, ptr %4, align 4, !tbaa !12
  call void @llvm.lifetime.start.p0(i64 8, ptr %5) #8
  %6 = load ptr, ptr %3, align 8, !tbaa !77
  store ptr %6, ptr %5, align 8, !tbaa !77
  br label %7

7:                                                ; preds = %18, %2
  %8 = load ptr, ptr %5, align 8, !tbaa !77
  %9 = icmp ne ptr %8, null
  br i1 %9, label %10, label %16

10:                                               ; preds = %7
  %11 = load ptr, ptr %5, align 8, !tbaa !77
  %12 = getelementptr inbounds nuw %struct.TLSX, ptr %11, i32 0, i32 0
  %13 = load i32, ptr %12, align 8, !tbaa !78
  %14 = load i32, ptr %4, align 4, !tbaa !12
  %15 = icmp ne i32 %13, %14
  br label %16

16:                                               ; preds = %10, %7
  %17 = phi i1 [ false, %7 ], [ %15, %10 ]
  br i1 %17, label %18, label %22

18:                                               ; preds = %16
  %19 = load ptr, ptr %5, align 8, !tbaa !77
  %20 = getelementptr inbounds nuw %struct.TLSX, ptr %19, i32 0, i32 4
  %21 = load ptr, ptr %20, align 8, !tbaa !80
  store ptr %21, ptr %5, align 8, !tbaa !77
  br label %7, !llvm.loop !110

22:                                               ; preds = %16
  %23 = load ptr, ptr %5, align 8, !tbaa !77
  call void @llvm.lifetime.end.p0(i64 8, ptr %5) #8
  ret ptr %23
}

; Function Attrs: nounwind uwtable
define i32 @TLSX_KeyShare_DeriveSecret(ptr noundef %0) #0 {
  %2 = alloca i32, align 4
  %3 = alloca ptr, align 8
  %4 = alloca i32, align 4
  %5 = alloca ptr, align 8
  %6 = alloca ptr, align 8
  %7 = alloca i32, align 4
  store ptr %0, ptr %3, align 8, !tbaa !3
  call void @llvm.lifetime.start.p0(i64 4, ptr %4) #8
  call void @llvm.lifetime.start.p0(i64 8, ptr %5) #8
  call void @llvm.lifetime.start.p0(i64 8, ptr %6) #8
  store ptr null, ptr %6, align 8, !tbaa !178
  %8 = load ptr, ptr %3, align 8, !tbaa !3
  %9 = getelementptr inbounds nuw %struct.WOLFSSL, ptr %8, i32 0, i32 77
  %10 = load ptr, ptr %9, align 8, !tbaa !107
  %11 = call ptr @TLSX_Find(ptr noundef %10, i32 noundef 51)
  store ptr %11, ptr %5, align 8, !tbaa !77
  %12 = load ptr, ptr %5, align 8, !tbaa !77
  %13 = icmp ne ptr %12, null
  br i1 %13, label %14, label %18

14:                                               ; preds = %1
  %15 = load ptr, ptr %5, align 8, !tbaa !77
  %16 = getelementptr inbounds nuw %struct.TLSX, ptr %15, i32 0, i32 1
  %17 = load ptr, ptr %16, align 8, !tbaa !103
  store ptr %17, ptr %6, align 8, !tbaa !178
  br label %18

18:                                               ; preds = %14, %1
  %19 = load ptr, ptr %6, align 8, !tbaa !178
  %20 = icmp eq ptr %19, null
  br i1 %20, label %21, label %22

21:                                               ; preds = %18
  store i32 -503, ptr %2, align 4
  store i32 1, ptr %7, align 4
  br label %27

22:                                               ; preds = %18
  %23 = load ptr, ptr %3, align 8, !tbaa !3
  %24 = load ptr, ptr %6, align 8, !tbaa !178
  %25 = call i32 @TLSX_KeyShare_Process(ptr noundef %23, ptr noundef %24)
  store i32 %25, ptr %4, align 4, !tbaa !12
  %26 = load i32, ptr %4, align 4, !tbaa !12
  store i32 %26, ptr %2, align 4
  store i32 1, ptr %7, align 4
  br label %27

27:                                               ; preds = %22, %21
  call void @llvm.lifetime.end.p0(i64 8, ptr %6) #8
  call void @llvm.lifetime.end.p0(i64 8, ptr %5) #8
  call void @llvm.lifetime.end.p0(i64 4, ptr %4) #8
  %28 = load i32, ptr %2, align 4
  ret i32 %28
}