; Function Attrs: nounwind uwtable
define i32 @TLSX_KeyShare_DeriveSecret(ptr noundef %0) local_unnamed_addr #0 {
  %2 = getelementptr inbounds nuw i8, ptr %0, i64 1224
  %3 = load ptr, ptr %2, align 8, !tbaa !100
  %.not6.i = icmp eq ptr %3, null
  br i1 %.not6.i, label %.thread, label %.lr.ph.i

.lr.ph.i:                                         ; preds = %1, %5
  %.07.i = phi ptr [ %7, %5 ], [ %3, %1 ]
  %4 = load i32, ptr %.07.i, align 8, !tbaa !60
  %.not5.i = icmp eq i32 %4, 51
  br i1 %.not5.i, label %8, label %5

5:                                                ; preds = %.lr.ph.i
  %6 = getelementptr inbounds nuw i8, ptr %.07.i, i64 24
  %7 = load ptr, ptr %6, align 8, !tbaa !63
  %.not.i = icmp eq ptr %7, null
  br i1 %.not.i, label %.thread, label %.lr.ph.i, !llvm.loop !101

8:                                                ; preds = %.lr.ph.i
  %9 = getelementptr inbounds nuw i8, ptr %.07.i, i64 8
  %10 = load ptr, ptr %9, align 8, !tbaa !82
  %11 = icmp eq ptr %10, null
  br i1 %11, label %.thread, label %12

12:                                               ; preds = %8
  %13 = tail call fastcc i32 @TLSX_KeyShare_Process(ptr noundef %0, ptr noundef nonnull %10)
  br label %.thread

.thread:                                          ; preds = %5, %1, %8, %12
  %.07 = phi i32 [ %13, %12 ], [ -503, %8 ], [ -503, %1 ], [ -503, %5 ]
  ret i32 %.07
}